target datalayout = "e-m:e-p270:32:32-p271:32:32-p272:64:64-i64:64-i128:128-f80:128-n8:16:32:64-S128"
target triple = "x86_64-pc-linux-gnu"

%struct.SDL_Palette = type { i32, ptr, i32, i32 }
%struct.SDL_Color = type { i8, i8, i8, i8 }

; Function Attrs: nounwind uwtable
define hidden void @SDL_DitherPalette(ptr noundef %0) #0 {
  %2 = alloca ptr, align 8
  %3 = alloca i32, align 4
  %4 = alloca i32, align 4
  %5 = alloca i32, align 4
  %6 = alloca i32, align 4
  %7 = alloca i32, align 4
  store ptr %0, ptr %2, align 8
  call void @llvm.lifetime.start.p0(i64 4, ptr %3) #7
  %8 = load ptr, ptr %2, align 8
  %9 = getelementptr inbounds nuw %struct.SDL_Palette, ptr %8, i32 0, i32 0
  %10 = load i32, ptr %9, align 8
  %11 = icmp ne i32 %10, 256
  br i1 %11, label %12, label %13

12:                                               ; preds = %1
  store i32 1, ptr %4, align 4
  br label %88

13:                                               ; preds = %1
  store i32 0, ptr %3, align 4
  br label %14

14:                                               ; preds = %84, %13
  %15 = load i32, ptr %3, align 4
  %16 = load ptr, ptr %2, align 8
  %17 = getelementptr inbounds nuw %struct.SDL_Palette, ptr %16, i32 0, i32 0
  %18 = load i32, ptr %17, align 8
  %19 = icmp slt i32 %15, %18
  br i1 %19, label %20, label %87

20:                                               ; preds = %14
  call void @llvm.lifetime.start.p0(i64 4, ptr %5) #7
  call void @llvm.lifetime.start.p0(i64 4, ptr %6) #7
  call void @llvm.lifetime.start.p0(i64 4, ptr %7) #7
  %21 = load i32, ptr %3, align 4
  %22 = and i32 %21, 224
  store i32 %22, ptr %5, align 4
  %23 = load i32, ptr %5, align 4
  %24 = ashr i32 %23, 3
  %25 = load i32, ptr %5, align 4
  %26 = ashr i32 %25, 6
  %27 = or i32 %24, %26
  %28 = load i32, ptr %5, align 4
  %29 = or i32 %28, %27
  store i32 %29, ptr %5, align 4
  %30 = load i32, ptr %5, align 4
  %31 = trunc i32 %30 to i8
  %32 = load ptr, ptr %2, align 8
  %33 = getelementptr inbounds nuw %struct.SDL_Palette, ptr %32, i32 0, i32 1
  %34 = load ptr, ptr %33, align 8
  %35 = load i32, ptr %3, align 4
  %36 = sext i32 %35 to i64
  %37 = getelementptr inbounds %struct.SDL_Color, ptr %34, i64 %36
  %38 = getelementptr inbounds nuw %struct.SDL_Color, ptr %37, i32 0, i32 0
  store i8 %31, ptr %38, align 1
  %39 = load i32, ptr %3, align 4
  %40 = shl i32 %39, 3
  %41 = and i32 %40, 224
  store i32 %41, ptr %6, align 4
  %42 = load i32, ptr %6, align 4
  %43 = ashr i32 %42, 3
  %44 = load i32, ptr %6, align 4
  %45 = ashr i32 %44, 6
  %46 = or i32 %43, %45
  %47 = load i32, ptr %6, align 4
  %48 = or i32 %47, %46
  store i32 %48, ptr %6, align 4
  %49 = load i32, ptr %6, align 4
  %50 = trunc i32 %49 to i8
  %51 = load ptr, ptr %2, align 8
  %52 = getelementptr inbounds nuw %struct.SDL_Palette, ptr %51, i32 0, i32 1
  %53 = load ptr, ptr %52, align 8
  %54 = load i32, ptr %3, align 4
  %55 = sext i32 %54 to i64
  %56 = getelementptr inbounds %struct.SDL_Color, ptr %53, i64 %55
  %57 = getelementptr inbounds nuw %struct.SDL_Color, ptr %56, i32 0, i32 1
  store i8 %50, ptr %57, align 1
  %58 = load i32, ptr %3, align 4
  %59 = and i32 %58, 3
  store i32 %59, ptr %7, align 4
  %60 = load i32, ptr %7, align 4
  %61 = shl i32 %60, 2
  %62 = load i32, ptr %7, align 4
  %63 = or i32 %62, %61
  store i32 %63, ptr %7, align 4
  %64 = load i32, ptr %7, align 4
  %65 = shl i32 %64, 4
  %66 = load i32, ptr %7, align 4
  %67 = or i32 %66, %65
  store i32 %67, ptr %7, align 4
  %68 = load i32, ptr %7, align 4
  %69 = trunc i32 %68 to i8
  %70 = load ptr, ptr %2, align 8
  %71 = getelementptr inbounds nuw %struct.SDL_Palette, ptr %70, i32 0, i32 1
  %72 = load ptr, ptr %71, align 8
  %73 = load i32, ptr %3, align 4
  %74 = sext i32 %73 to i64
  %75 = getelementptr inbounds %struct.SDL_Color, ptr %72, i64 %74
  %76 = getelementptr inbounds nuw %struct.SDL_Color, ptr %75, i32 0, i32 2
  store i8 %69, ptr %76, align 1
  %77 = load ptr, ptr %2, align 8
  %78 = getelementptr inbounds nuw %struct.SDL_Palette, ptr %77, i32 0, i32 1
  %79 = load ptr, ptr %78, align 8
  %80 = load i32, ptr %3, align 4
  %81 = sext i32 %80 to i64
  %82 = getelementptr inbounds %struct.SDL_Color, ptr %79, i64 %81
  %83 = getelementptr inbounds nuw %struct.SDL_Color, ptr %82, i32 0, i32 3
  store i8 -1, ptr %83, align 1
  call void @llvm.lifetime.end.p0(i64 4, ptr %7) #7
  call void @llvm.lifetime.end.p0(i64 4, ptr %6) #7
  call void @llvm.lifetime.end.p0(i64 4, ptr %5) #7
  br label %84

84:                                               ; preds = %20
  %85 = load i32, ptr %3, align 4
  %86 = add nsw i32 %85, 1
  store i32 %86, ptr %3, align 4
  br label %14, !llvm.loop !14

87:                                               ; preds = %14
  store i32 0, ptr %4, align 4
  br label %88

88:                                               ; preds = %87, %12
  call void @llvm.lifetime.end.p0(i64 4, ptr %3) #7
  %89 = load i32, ptr %4, align 4
  switch i32 %89, label %91 [
    i32 0, label %90
    i32 1, label %90
  ]

90:                                               ; preds = %88, %88
  ret void

91:                                               ; preds = %88
  unreachable
}