; Function Attrs: nofree norecurse nosync nounwind memory(write, argmem: readwrite, inaccessiblemem: none) uwtable
define hidden void @SDL_DitherPalette(ptr noundef readonly captures(none) %0) local_unnamed_addr #9 {
  %2 = load i32, ptr %0, align 8
  %.not = icmp eq i32 %2, 256
  br i1 %.not, label %.lr.ph, label %.loopexit

.lr.ph:                                           ; preds = %1
  %3 = getelementptr inbounds nuw i8, ptr %0, i64 8
  br label %4

4:                                                ; preds = %.lr.ph, %4
  %indvars.iv = phi i64 [ 0, %.lr.ph ], [ %indvars.iv.next, %4 ]
  %5 = trunc nuw nsw i64 %indvars.iv to i32
  %6 = and i32 %5, 224
  %7 = lshr exact i32 %6, 3
  %8 = lshr i32 %6, 6
  %9 = or disjoint i32 %8, %7
  %10 = or disjoint i32 %9, %6
  %11 = trunc nuw i32 %10 to i8
  %12 = load ptr, ptr %3, align 8
  %13 = getelementptr inbounds nuw %struct.SDL_Color, ptr %12, i64 %indvars.iv
  store i8 %11, ptr %13, align 1
  %14 = shl i32 %5, 3
  %15 = and i32 %14, 224
  %16 = lshr exact i32 %15, 3
  %17 = lshr i32 %15, 6
  %18 = or disjoint i32 %17, %16
  %19 = or disjoint i32 %18, %15
  %20 = trunc nuw i32 %19 to i8
  %21 = load ptr, ptr %3, align 8
  %22 = getelementptr inbounds nuw %struct.SDL_Color, ptr %21, i64 %indvars.iv, i32 1
  store i8 %20, ptr %22, align 1
  %23 = trunc i64 %indvars.iv to i8
  %24 = and i8 %23, 3
  %25 = mul nuw i8 %24, 85
  %26 = load ptr, ptr %3, align 8
  %27 = getelementptr inbounds nuw %struct.SDL_Color, ptr %26, i64 %indvars.iv, i32 2
  store i8 %25, ptr %27, align 1
  %28 = load ptr, ptr %3, align 8
  %29 = getelementptr inbounds nuw %struct.SDL_Color, ptr %28, i64 %indvars.iv, i32 3
  store i8 -1, ptr %29, align 1
  %indvars.iv.next = add nuw nsw i64 %indvars.iv, 1
  %30 = load i32, ptr %0, align 8
  %31 = sext i32 %30 to i64
  %32 = icmp slt i64 %indvars.iv.next, %31
  br i1 %32, label %4, label %.loopexit, !llvm.loop !12

.loopexit:                                        ; preds = %4, %1
  ret void
}